; Function Attrs: mustprogress uwtable
define hidden void @_ZNK2cv3dnn14dnn4_v202412236detail11NetImplBase19getDumpFileNameBaseB5cxx11Ev(ptr dead_on_unwind noalias writable sret(%"class.std::__cxx11::basic_string") align 8 %0, ptr noundef nonnull align 4 captures(none) dereferenceable(12) %1) local_unnamed_addr #3 align 2 {
  %3 = load i32, ptr %1, align 4, !tbaa !3
  %4 = getelementptr inbounds nuw i8, ptr %1, i64 4
  %5 = load i32, ptr %4, align 4, !tbaa !8
  %6 = add nsw i32 %5, 1
  store i32 %6, ptr %4, align 4, !tbaa !8
  tail call void (ptr, ptr, ...) @_ZN2cv6formatB5cxx11EPKcz(ptr dead_on_unwind writable sret(%"class.std::__cxx11::basic_string") align 8 %0, ptr noundef nonnull @.str, i32 noundef %3, i32 noundef %5)
  ret void
}